target datalayout = "e-m:e-p270:32:32-p271:32:32-p272:64:64-i64:64-i128:128-f80:128-n8:16:32:64-S128"
target triple = "x86_64-pc-linux-gnu"

%class.SplashOverlay = type { %class.QWidget, ptr, i32, i32, %class.QElapsedTimer }
%class.QWidget = type { %class.QObject, %class.QPaintDevice.base, ptr }
%class.QObject = type { ptr, %class.QScopedPointer }
%class.QScopedPointer = type { ptr }
%class.QPaintDevice.base = type <{ ptr, i16 }>
%class.QElapsedTimer = type { i64, i64 }

; Function Attrs: mustprogress nounwind null_pointer_is_valid sspstrong uwtable
define void @_ZN13SplashOverlayD2Ev(ptr noundef align 8 dereferenceable_or_null(72) %0) unnamed_addr #4 align 2 {
  %2 = alloca ptr, align 8
  store ptr %0, ptr %2, align 8
  %3 = load ptr, ptr %2, align 8
  store ptr getelementptr inbounds inrange(-16, 416) ({ [54 x ptr], [10 x ptr] }, ptr @_ZTV13SplashOverlay, i32 0, i32 0, i32 2), ptr %3, align 8
  %4 = getelementptr inbounds i8, ptr %3, i64 16
  store ptr getelementptr inbounds inrange(-16, 64) ({ [54 x ptr], [10 x ptr] }, ptr @_ZTV13SplashOverlay, i32 0, i32 1, i32 2), ptr %4, align 8
  %5 = getelementptr inbounds nuw %class.SplashOverlay, ptr %3, i32 0, i32 1
  %6 = load ptr, ptr %5, align 8
  %7 = icmp eq ptr %6, null
  br i1 %7, label %9, label %8

8:                                                ; preds = %1
  call void @_ZdlPvm(ptr noundef %6, i64 noundef 80) #19
  br label %9

9:                                                ; preds = %8, %1
  call void @_ZN7QWidgetD2Ev(ptr noundef align 8 dereferenceable_or_null(40) %3) #17
  ret void
}